target datalayout = "e-m:e-p270:32:32-p271:32:32-p272:64:64-i64:64-i128:128-f80:128-n8:16:32:64-S128"
target triple = "x86_64-pc-linux-gnu"

%"class.nanogui::Color" = type { %"struct.nanogui::Array" }
%"struct.nanogui::Array" = type { [4 x float] }
%"class.std::__1::basic_string" = type { %"class.std::__1::__compressed_pair.4" }
%"class.std::__1::__compressed_pair.4" = type { %"struct.std::__1::__compressed_pair_elem.5" }
%"struct.std::__1::__compressed_pair_elem.5" = type { %"struct.std::__1::basic_string<char>::__rep" }
%"struct.std::__1::basic_string<char>::__rep" = type { %union.anon }
%union.anon = type { %"struct.std::__1::basic_string<char>::__long" }
%"struct.std::__1::basic_string<char>::__long" = type { %struct.anon.6, i64, ptr }
%struct.anon.6 = type { i64 }
%"struct.std::__1::atomic" = type { %"struct.std::__1::__atomic_base" }
%"struct.std::__1::__atomic_base" = type { %"struct.std::__1::__atomic_base.0" }
%"struct.std::__1::__atomic_base.0" = type { %"struct.std::__1::__cxx_atomic_impl" }
%"struct.std::__1::__cxx_atomic_impl" = type { %"struct.std::__1::__cxx_atomic_base_impl" }
%"struct.std::__1::__cxx_atomic_base_impl" = type { i32 }
%"struct.nanogui::Array.2" = type { [2 x i32] }
%"class.std::__1::function.55" = type { %"class.std::__1::__function::__value_func.59" }
%"class.std::__1::__function::__value_func.59" = type { %"struct.std::__1::aligned_storage<24>::type", ptr, [8 x i8] }
%"struct.std::__1::aligned_storage<24>::type" = type { [32 x i8] }
%"class.std::__1::function.50" = type { %"class.std::__1::__function::__value_func.53" }
%"class.std::__1::__function::__value_func.53" = type { %"struct.std::__1::aligned_storage<24>::type", ptr, [8 x i8] }
%class.anon.119 = type { ptr }
%"class.std::__1::function" = type { %"class.std::__1::__function::__value_func" }
%"class.std::__1::__function::__value_func" = type { %"struct.std::__1::aligned_storage<24>::type", ptr, [8 x i8] }
%"class.std::__1::shared_ptr.24" = type { ptr, ptr }
%"class.tev::ImageViewer" = type <{ %"class.nanogui::Screen", %"class.tev::SharedQueue", i8, i8, [6 x i8], ptr, ptr, ptr, ptr, ptr, i8, [7 x i8], ptr, ptr, ptr, ptr, ptr, ptr, ptr, ptr, %"class.std::__1::shared_ptr", %"class.std::__1::shared_ptr.24", %"class.std::__1::shared_ptr.24", %"class.std::__1::vector.25", ptr, %"class.std::__1::set", ptr, ptr, ptr, %"class.std::__1::chrono::time_point", %"class.std::__1::vector.40", %"class.std::__1::vector.40", ptr, ptr, %"class.std::__1::chrono::time_point", ptr, ptr, ptr, ptr, ptr, %"class.std::__1::basic_string", ptr, %"struct.nanogui::Array.2", i32, [4 x i8], i64, i64, i8, [7 x i8], ptr, i32, [4 x i8] }>
%"class.nanogui::Screen" = type { %"class.nanogui::Widget.base", ptr, ptr, [6 x ptr], i32, %"class.std::__1::vector", %"struct.nanogui::Array.2", float, i32, i32, %"struct.nanogui::Array.2", i8, ptr, double, i8, %"class.nanogui::Color", %"class.std::__1::basic_string", i8, i8, i8, i8, i8, i8, %"class.std::__1::function" }
%"class.nanogui::Widget.base" = type <{ %"class.nanogui::Object.base", [4 x i8], ptr, %"class.nanogui::ref", %"class.nanogui::ref.1", %"struct.nanogui::Array.2", %"struct.nanogui::Array.2", %"struct.nanogui::Array.2", %"class.std::__1::vector", i8, i8, i8, i8, [4 x i8], %"class.std::__1::basic_string", i32, float, i32 }>
%"class.nanogui::Object.base" = type <{ ptr, %"struct.std::__1::atomic" }>
%"class.nanogui::ref" = type { ptr }
%"class.nanogui::ref.1" = type { ptr }
%"class.std::__1::vector" = type { ptr, ptr, %"class.std::__1::__compressed_pair" }
%"class.std::__1::__compressed_pair" = type { %"struct.std::__1::__compressed_pair_elem" }
%"struct.std::__1::__compressed_pair_elem" = type { ptr }
%"class.tev::SharedQueue" = type { %"class.std::__1::deque", %"class.std::__1::mutex", %"class.std::__1::condition_variable" }
%"class.std::__1::deque" = type { %"struct.std::__1::__split_buffer", i64, %"class.std::__1::__compressed_pair.17" }
%"struct.std::__1::__split_buffer" = type { ptr, ptr, ptr, %"class.std::__1::__compressed_pair.11" }
%"class.std::__1::__compressed_pair.11" = type { %"struct.std::__1::__compressed_pair_elem.12" }
%"struct.std::__1::__compressed_pair_elem.12" = type { ptr }
%"class.std::__1::__compressed_pair.17" = type { %"struct.std::__1::__compressed_pair_elem.18" }
%"struct.std::__1::__compressed_pair_elem.18" = type { i64 }
%"class.std::__1::mutex" = type { %union.pthread_mutex_t }
%union.pthread_mutex_t = type { %struct.__pthread_mutex_s }
%struct.__pthread_mutex_s = type { i32, i32, i32, i32, i32, i16, i16, %struct.__pthread_internal_list }
%struct.__pthread_internal_list = type { ptr, ptr }
%"class.std::__1::condition_variable" = type { %union.pthread_cond_t }
%union.pthread_cond_t = type { %struct.__pthread_cond_s }
%struct.__pthread_cond_s = type { %union.__atomic_wide_counter, %union.__atomic_wide_counter, [2 x i32], [2 x i32], i32, i32, [2 x i32] }
%union.__atomic_wide_counter = type { i64 }
%"class.std::__1::shared_ptr" = type { ptr, ptr }
%"class.std::__1::vector.25" = type { ptr, ptr, %"class.std::__1::__compressed_pair.26" }
%"class.std::__1::__compressed_pair.26" = type { %"struct.std::__1::__compressed_pair_elem.27" }
%"struct.std::__1::__compressed_pair_elem.27" = type { ptr }
%"class.std::__1::set" = type { %"class.std::__1::__tree" }
%"class.std::__1::__tree" = type { ptr, %"class.std::__1::__compressed_pair.32", %"class.std::__1::__compressed_pair.38" }
%"class.std::__1::__compressed_pair.32" = type { %"struct.std::__1::__compressed_pair_elem.33" }
%"struct.std::__1::__compressed_pair_elem.33" = type { %"class.std::__1::__tree_end_node" }
%"class.std::__1::__tree_end_node" = type { ptr }
%"class.std::__1::__compressed_pair.38" = type { %"struct.std::__1::__compressed_pair_elem.18" }
%"class.std::__1::vector.40" = type { ptr, ptr, %"class.std::__1::__compressed_pair.41" }
%"class.std::__1::__compressed_pair.41" = type { %"struct.std::__1::__compressed_pair_elem.42" }
%"struct.std::__1::__compressed_pair_elem.42" = type { ptr }
%"class.std::__1::chrono::time_point" = type { %"class.std::__1::chrono::duration" }
%"class.std::__1::chrono::duration" = type { i64 }
%"class.nanogui::Widget" = type <{ %"class.nanogui::Object.base", [4 x i8], ptr, %"class.nanogui::ref", %"class.nanogui::ref.1", %"struct.nanogui::Array.2", %"struct.nanogui::Array.2", %"struct.nanogui::Array.2", %"class.std::__1::vector", i8, i8, i8, i8, [4 x i8], %"class.std::__1::basic_string", i32, float, i32, [4 x i8] }>
%"class.nanogui::Button" = type { %"class.nanogui::Widget.base", %"class.std::__1::basic_string", i32, i32, i8, i32, %"class.nanogui::Color", %"class.nanogui::Color", %"class.std::__1::function.50", %"class.std::__1::function.55", %"class.std::__1::vector.40", [8 x i8] }

; Function Attrs: mustprogress nounwind uwtable
define linkonce_odr hidden noundef ptr @_ZNSt3__110__function12__value_funcIFvvEE9__as_baseB8ne190000EPv(ptr noundef %0) #1 comdat align 2 {
  %2 = alloca ptr, align 8
  store ptr %0, ptr %2, align 8
  %3 = load ptr, ptr %2, align 8
  ret ptr %3
}

; Function Attrs: mustprogress nounwind uwtable
define linkonce_odr hidden void @_ZNSt3__110__function12__value_funcIFvvEED2B8ne190000Ev(ptr noundef nonnull align 16 dereferenceable(40) %0) unnamed_addr #1 comdat align 2 {
  %2 = alloca ptr, align 8
  store ptr %0, ptr %2, align 8
  %3 = load ptr, ptr %2, align 8
  %4 = getelementptr inbounds %"class.std::__1::__function::__value_func.53", ptr %3, i32 0, i32 1
  %5 = load ptr, ptr %4, align 16
  %6 = getelementptr inbounds %"class.std::__1::__function::__value_func.53", ptr %3, i32 0, i32 0
  %7 = icmp eq ptr %5, %6
  br i1 %7, label %8, label %14

8:                                                ; preds = %1
  %9 = getelementptr inbounds %"class.std::__1::__function::__value_func.53", ptr %3, i32 0, i32 1
  %10 = load ptr, ptr %9, align 16
  %11 = load ptr, ptr %10, align 8
  %12 = getelementptr inbounds ptr, ptr %11, i64 4
  %13 = load ptr, ptr %12, align 8
  call void %13(ptr noundef nonnull align 8 dereferenceable(8) %10) #11
  br label %25

14:                                               ; preds = %1
  %15 = getelementptr inbounds %"class.std::__1::__function::__value_func.53", ptr %3, i32 0, i32 1
  %16 = load ptr, ptr %15, align 16
  %17 = icmp ne ptr %16, null
  br i1 %17, label %18, label %24

18:                                               ; preds = %14
  %19 = getelementptr inbounds %"class.std::__1::__function::__value_func.53", ptr %3, i32 0, i32 1
  %20 = load ptr, ptr %19, align 16
  %21 = load ptr, ptr %20, align 8
  %22 = getelementptr inbounds ptr, ptr %21, i64 5
  %23 = load ptr, ptr %22, align 8
  call void %23(ptr noundef nonnull align 8 dereferenceable(8) %20) #11
  br label %24

24:                                               ; preds = %18, %14
  br label %25

25:                                               ; preds = %24, %8
  ret void
}

; Function Attrs: mustprogress uwtable
define linkonce_odr hidden void @_ZNSt3__110__function12__value_funcIFvvEEC2B8ne190000ERKS3_(ptr noundef nonnull align 16 dereferenceable(40) %0, ptr noundef nonnull align 16 dereferenceable(40) %1) unnamed_addr #4 comdat align 2 {
  %3 = alloca ptr, align 8
  %4 = alloca ptr, align 8
  store ptr %0, ptr %3, align 8
  store ptr %1, ptr %4, align 8
  %5 = load ptr, ptr %3, align 8
  %6 = load ptr, ptr %4, align 8
  %7 = getelementptr inbounds %"class.std::__1::__function::__value_func.53", ptr %6, i32 0, i32 1
  %8 = load ptr, ptr %7, align 16
  %9 = icmp eq ptr %8, null
  br i1 %9, label %10, label %12

10:                                               ; preds = %2
  %11 = getelementptr inbounds %"class.std::__1::__function::__value_func.53", ptr %5, i32 0, i32 1
  store ptr null, ptr %11, align 16
  br label %41

12:                                               ; preds = %2
  %13 = load ptr, ptr %4, align 8
  %14 = getelementptr inbounds %"class.std::__1::__function::__value_func.53", ptr %13, i32 0, i32 1
  %15 = load ptr, ptr %14, align 16
  %16 = load ptr, ptr %4, align 8
  %17 = getelementptr inbounds %"class.std::__1::__function::__value_func.53", ptr %16, i32 0, i32 0
  %18 = icmp eq ptr %15, %17
  br i1 %18, label %19, label %31

19:                                               ; preds = %12
  %20 = getelementptr inbounds %"class.std::__1::__function::__value_func.53", ptr %5, i32 0, i32 0
  %21 = call noundef ptr @_ZNSt3__110__function12__value_funcIFvvEE9__as_baseB8ne190000EPv(ptr noundef %20)
  %22 = getelementptr inbounds %"class.std::__1::__function::__value_func.53", ptr %5, i32 0, i32 1
  store ptr %21, ptr %22, align 16
  %23 = load ptr, ptr %4, align 8
  %24 = getelementptr inbounds %"class.std::__1::__function::__value_func.53", ptr %23, i32 0, i32 1
  %25 = load ptr, ptr %24, align 16
  %26 = getelementptr inbounds %"class.std::__1::__function::__value_func.53", ptr %5, i32 0, i32 1
  %27 = load ptr, ptr %26, align 16
  %28 = load ptr, ptr %25, align 8
  %29 = getelementptr inbounds ptr, ptr %28, i64 3
  %30 = load ptr, ptr %29, align 8
  call void %30(ptr noundef nonnull align 8 dereferenceable(8) %25, ptr noundef %27)
  br label %40

31:                                               ; preds = %12
  %32 = load ptr, ptr %4, align 8
  %33 = getelementptr inbounds %"class.std::__1::__function::__value_func.53", ptr %32, i32 0, i32 1
  %34 = load ptr, ptr %33, align 16
  %35 = load ptr, ptr %34, align 8
  %36 = getelementptr inbounds ptr, ptr %35, i64 2
  %37 = load ptr, ptr %36, align 8
  %38 = call noundef ptr %37(ptr noundef nonnull align 8 dereferenceable(8) %34)
  %39 = getelementptr inbounds %"class.std::__1::__function::__value_func.53", ptr %5, i32 0, i32 1
  store ptr %38, ptr %39, align 16
  br label %40

40:                                               ; preds = %31, %19
  br label %41

41:                                               ; preds = %40, %10
  ret void
}

; Function Attrs: mustprogress nounwind uwtable
define linkonce_odr hidden void @_ZNSt3__18functionIFvvEED2Ev(ptr noundef nonnull align 16 dereferenceable(48) %0) unnamed_addr #1 comdat align 2 {
  %2 = alloca ptr, align 8
  store ptr %0, ptr %2, align 8
  %3 = load ptr, ptr %2, align 8
  %4 = getelementptr inbounds %"class.std::__1::function.50", ptr %3, i32 0, i32 0
  call void @_ZNSt3__110__function12__value_funcIFvvEED2B8ne190000Ev(ptr noundef nonnull align 16 dereferenceable(40) %4) #11
  ret void
}

; Function Attrs: mustprogress nounwind uwtable
define linkonce_odr hidden void @_ZNSt3__18functionIFvvEE4swapERS2_(ptr noundef nonnull align 16 dereferenceable(48) %0, ptr noundef nonnull align 16 dereferenceable(48) %1) #1 comdat align 2 {
  %3 = alloca ptr, align 8
  %4 = alloca ptr, align 8
  store ptr %0, ptr %3, align 8
  store ptr %1, ptr %4, align 8
  %5 = load ptr, ptr %3, align 8
  %6 = getelementptr inbounds %"class.std::__1::function.50", ptr %5, i32 0, i32 0
  %7 = load ptr, ptr %4, align 8
  %8 = getelementptr inbounds %"class.std::__1::function.50", ptr %7, i32 0, i32 0
  call void @_ZNSt3__110__function12__value_funcIFvvEE4swapB8ne190000ERS3_(ptr noundef nonnull align 16 dereferenceable(40) %6, ptr noundef nonnull align 16 dereferenceable(40) %8) #11
  ret void
}

; Function Attrs: mustprogress uwtable
define linkonce_odr hidden void @_ZNSt3__18functionIFvvEEC2ERKS2_(ptr noundef nonnull align 16 dereferenceable(48) %0, ptr noundef nonnull align 16 dereferenceable(48) %1) unnamed_addr #4 comdat align 2 {
  %3 = alloca ptr, align 8
  %4 = alloca ptr, align 8
  store ptr %0, ptr %3, align 8
  store ptr %1, ptr %4, align 8
  %5 = load ptr, ptr %3, align 8
  %6 = getelementptr inbounds %"class.std::__1::function.50", ptr %5, i32 0, i32 0
  %7 = load ptr, ptr %4, align 8
  %8 = getelementptr inbounds %"class.std::__1::function.50", ptr %7, i32 0, i32 0
  call void @_ZNSt3__110__function12__value_funcIFvvEEC2B8ne190000ERKS3_(ptr noundef nonnull align 16 dereferenceable(40) %6, ptr noundef nonnull align 16 dereferenceable(40) %8)
  ret void
}

; Function Attrs: mustprogress uwtable
define linkonce_odr hidden noundef nonnull align 16 dereferenceable(48) ptr @_ZNSt3__18functionIFvvEEaSERKS2_(ptr noundef nonnull align 16 dereferenceable(48) %0, ptr noundef nonnull align 16 dereferenceable(48) %1) #4 comdat align 2 {
  %3 = alloca ptr, align 8
  %4 = alloca ptr, align 8
  %5 = alloca %"class.std::__1::function.50", align 16
  store ptr %0, ptr %3, align 8
  store ptr %1, ptr %4, align 8
  %6 = load ptr, ptr %3, align 8
  %7 = load ptr, ptr %4, align 8
  call void @_ZNSt3__18functionIFvvEEC2ERKS2_(ptr noundef nonnull align 16 dereferenceable(48) %5, ptr noundef nonnull align 16 dereferenceable(48) %7)
  call void @_ZNSt3__18functionIFvvEE4swapERS2_(ptr noundef nonnull align 16 dereferenceable(48) %5, ptr noundef nonnull align 16 dereferenceable(48) %6) #11
  call void @_ZNSt3__18functionIFvvEED2Ev(ptr noundef nonnull align 16 dereferenceable(48) %5) #11
  ret ptr %6
}

; Function Attrs: mustprogress uwtable
define linkonce_odr dso_local void @_ZN7nanogui6Button12set_callbackERKNSt3__18functionIFvvEEE(ptr noundef nonnull align 16 dereferenceable(328) %0, ptr noundef nonnull align 16 dereferenceable(48) %1) #4 comdat align 2 {
  %3 = alloca ptr, align 8
  %4 = alloca ptr, align 8
  store ptr %0, ptr %3, align 8
  store ptr %1, ptr %4, align 8
  %5 = load ptr, ptr %3, align 8
  %6 = load ptr, ptr %4, align 8
  %7 = getelementptr inbounds %"class.nanogui::Button", ptr %5, i32 0, i32 8
  %8 = call noundef nonnull align 16 dereferenceable(48) ptr @_ZNSt3__18functionIFvvEEaSERKS2_(ptr noundef nonnull align 16 dereferenceable(48) %7, ptr noundef nonnull align 16 dereferenceable(48) %6)
  ret void
}

; Function Attrs: mustprogress nounwind uwtable
define linkonce_odr dso_local void @_ZN7nanogui6Widget13set_font_sizeEi(ptr noundef nonnull align 8 dereferenceable(132) %0, i32 noundef %1) #1 comdat align 2 {
  %3 = alloca ptr, align 8
  %4 = alloca i32, align 4
  store ptr %0, ptr %3, align 8
  store i32 %1, ptr %4, align 4
  %5 = load ptr, ptr %3, align 8
  %6 = load i32, ptr %4, align 4
  %7 = getelementptr inbounds %"class.nanogui::Widget", ptr %5, i32 0, i32 15
  store i32 %6, ptr %7, align 8
  ret void
}

; Function Attrs: mustprogress nounwind uwtable
define linkonce_odr dso_local void @_ZN7nanogui6Button9set_flagsEi(ptr noundef nonnull align 16 dereferenceable(328) %0, i32 noundef %1) #1 comdat align 2 {
  %3 = alloca ptr, align 8
  %4 = alloca i32, align 4
  store ptr %0, ptr %3, align 8
  store i32 %1, ptr %4, align 4
  %5 = load ptr, ptr %3, align 8
  %6 = load i32, ptr %4, align 4
  %7 = getelementptr inbounds %"class.nanogui::Button", ptr %5, i32 0, i32 5
  store i32 %6, ptr %7, align 4
  ret void
}

; Function Attrs: mustprogress uwtable
define internal noundef ptr @"_ZZN3tev11ImageViewerC1ERKNSt3__110shared_ptrINS_22BackgroundImagesLoaderEEEbbbENK4$_10clERKNS1_12basic_stringIcNS1_11char_traitsIcEENS1_9allocatorIcEEEENS1_8functionIFvvEEE"(ptr noundef nonnull align 8 dereferenceable(8) %0, ptr noundef nonnull align 8 dereferenceable(24) %1, ptr noundef %2) #4 align 2 personality ptr @__gxx_personality_v0 {
  %4 = alloca ptr, align 8
  %5 = alloca ptr, align 8
  %6 = alloca ptr, align 8
  %7 = alloca ptr, align 8
  %8 = alloca ptr, align 8
  %9 = alloca i32, align 4
  store ptr %0, ptr %4, align 8
  store ptr %1, ptr %5, align 8
  store ptr %2, ptr %6, align 8
  %10 = load ptr, ptr %4, align 8
  %11 = getelementptr inbounds %class.anon.119, ptr %10, i32 0, i32 0
  %12 = load ptr, ptr %11, align 8
  %13 = call noalias noundef nonnull ptr @_Znwm(i64 noundef 336) #24
  %14 = getelementptr inbounds %"class.tev::ImageViewer", ptr %12, i32 0, i32 18
  %15 = load ptr, ptr %14, align 16
  %16 = load ptr, ptr %5, align 8
  invoke void @_ZN7nanogui6ButtonC1EPNS_6WidgetERKNSt3__112basic_stringIcNS3_11char_traitsIcEENS3_9allocatorIcEEEEi(ptr noundef nonnull align 16 dereferenceable(328) %13, ptr noundef %15, ptr noundef nonnull align 8 dereferenceable(24) %16, i32 noundef 0)
          to label %17 unwind label %22

17:                                               ; preds = %3
  store ptr %13, ptr %7, align 8
  %18 = load ptr, ptr %7, align 8
  call void @_ZN7nanogui6Button9set_flagsEi(ptr noundef nonnull align 16 dereferenceable(328) %18, i32 noundef 2)
  %19 = load ptr, ptr %7, align 8
  call void @_ZN7nanogui6Widget13set_font_sizeEi(ptr noundef nonnull align 8 dereferenceable(132) %19, i32 noundef 15)
  %20 = load ptr, ptr %7, align 8
  call void @_ZN7nanogui6Button12set_callbackERKNSt3__18functionIFvvEEE(ptr noundef nonnull align 16 dereferenceable(328) %20, ptr noundef nonnull align 16 dereferenceable(48) %2)
  %21 = load ptr, ptr %7, align 8
  ret ptr %21

22:                                               ; preds = %3
  %23 = landingpad { ptr, i32 }
          cleanup
  %24 = extractvalue { ptr, i32 } %23, 0
  store ptr %24, ptr %8, align 8
  %25 = extractvalue { ptr, i32 } %23, 1
  store i32 %25, ptr %9, align 4
  call void @_ZdlPv(ptr noundef %13) #23
  br label %26

26:                                               ; preds = %22
  %27 = load ptr, ptr %8, align 8
  %28 = load i32, ptr %9, align 4
  %29 = insertvalue { ptr, i32 } poison, ptr %27, 0
  %30 = insertvalue { ptr, i32 } %29, i32 %28, 1
  resume { ptr, i32 } %30
}