; Function Attrs: mustprogress uwtable
define internal fastcc void @"_ZZN3tev11ImageViewerC1ERKNSt3__110shared_ptrINS_22BackgroundImagesLoaderEEEbbbENK4$_10clERKNS1_12basic_stringIcNS1_11char_traitsIcEENS1_9allocatorIcEEEENS1_8functionIFvvEEE"(ptr nocapture readonly %.0.val, ptr noundef nonnull align 8 dereferenceable(24) %0, ptr noundef %1) unnamed_addr #7 align 2 personality ptr @__gxx_personality_v0 {
  %3 = alloca %"class.std::__1::function.50", align 16
  %4 = tail call noalias noundef nonnull dereferenceable(336) ptr @_Znwm(i64 noundef 336) #41
  %5 = getelementptr inbounds i8, ptr %.0.val, i64 624
  %6 = load ptr, ptr %5, align 16
  invoke void @_ZN7nanogui6ButtonC1EPNS_6WidgetERKNSt3__112basic_stringIcNS3_11char_traitsIcEENS3_9allocatorIcEEEEi(ptr noundef nonnull align 16 dereferenceable(328) %4, ptr noundef %6, ptr noundef nonnull align 8 dereferenceable(24) %0, i32 noundef 0)
          to label %7 unwind label %36

7:                                                ; preds = %2
  %8 = getelementptr inbounds i8, ptr %4, i64 172
  store i32 2, ptr %8, align 4
  %9 = getelementptr inbounds i8, ptr %4, i64 120
  store i32 15, ptr %9, align 8
  %10 = getelementptr inbounds i8, ptr %4, i64 208
  call void @llvm.lifetime.start.p0(i64 48, ptr nonnull %3)
  %11 = getelementptr inbounds i8, ptr %1, i64 32
  %12 = load ptr, ptr %11, align 16
  %13 = icmp eq ptr %12, null
  br i1 %13, label %14, label %16

14:                                               ; preds = %7
  %15 = getelementptr inbounds i8, ptr %3, i64 32
  store ptr null, ptr %15, align 16
  br label %_ZNSt3__18functionIFvvEEC2ERKS2_.exit.i.i

16:                                               ; preds = %7
  %17 = icmp eq ptr %12, %1
  br i1 %17, label %18, label %23

18:                                               ; preds = %16
  %19 = getelementptr inbounds i8, ptr %3, i64 32
  store ptr %3, ptr %19, align 16
  %20 = load ptr, ptr %1, align 8
  %21 = getelementptr inbounds i8, ptr %20, i64 24
  %22 = load ptr, ptr %21, align 8
  call void %22(ptr noundef nonnull align 8 dereferenceable(8) %1, ptr noundef nonnull %3)
  br label %_ZNSt3__18functionIFvvEEC2ERKS2_.exit.i.i

23:                                               ; preds = %16
  %24 = load ptr, ptr %12, align 8
  %25 = getelementptr inbounds i8, ptr %24, i64 16
  %26 = load ptr, ptr %25, align 8
  %27 = tail call noundef ptr %26(ptr noundef nonnull align 8 dereferenceable(8) %12)
  %28 = getelementptr inbounds i8, ptr %3, i64 32
  store ptr %27, ptr %28, align 16
  br label %_ZNSt3__18functionIFvvEEC2ERKS2_.exit.i.i

_ZNSt3__18functionIFvvEEC2ERKS2_.exit.i.i:        ; preds = %23, %18, %14
  call void @_ZNSt3__110__function12__value_funcIFvvEE4swapB8ne190000ERS3_(ptr noundef nonnull align 16 dereferenceable(40) %3, ptr noundef nonnull align 16 dereferenceable(40) %10) #39
  %29 = getelementptr inbounds i8, ptr %3, i64 32
  %30 = load ptr, ptr %29, align 16
  %31 = icmp eq ptr %30, %3
  br i1 %31, label %.sink.split.i.i.i.i, label %32

32:                                               ; preds = %_ZNSt3__18functionIFvvEEC2ERKS2_.exit.i.i
  %.not.i.i.i.i = icmp eq ptr %30, null
  br i1 %.not.i.i.i.i, label %_ZN7nanogui6Button12set_callbackERKNSt3__18functionIFvvEEE.exit, label %.sink.split.i.i.i.i

.sink.split.i.i.i.i:                              ; preds = %32, %_ZNSt3__18functionIFvvEEC2ERKS2_.exit.i.i
  %.sink5.i.i.i.i = phi ptr [ %3, %_ZNSt3__18functionIFvvEEC2ERKS2_.exit.i.i ], [ %30, %32 ]
  %.sink4.i.i.i.i = phi i64 [ 32, %_ZNSt3__18functionIFvvEEC2ERKS2_.exit.i.i ], [ 40, %32 ]
  %33 = load ptr, ptr %.sink5.i.i.i.i, align 8
  %34 = getelementptr inbounds i8, ptr %33, i64 %.sink4.i.i.i.i
  %35 = load ptr, ptr %34, align 8
  call void %35(ptr noundef nonnull align 8 dereferenceable(8) %.sink5.i.i.i.i) #39
  br label %_ZN7nanogui6Button12set_callbackERKNSt3__18functionIFvvEEE.exit

_ZN7nanogui6Button12set_callbackERKNSt3__18functionIFvvEEE.exit: ; preds = %32, %.sink.split.i.i.i.i
  call void @llvm.lifetime.end.p0(i64 48, ptr nonnull %3)
  ret void

36:                                               ; preds = %2
  %37 = landingpad { ptr, i32 }
          cleanup
  tail call void @_ZdlPv(ptr noundef nonnull %4) #40
  resume { ptr, i32 } %37
}